target datalayout = "e-m:e-p270:32:32-p271:32:32-p272:64:64-i64:64-i128:128-f80:128-n8:16:32:64-S128"
target triple = "x86_64-pc-linux-gnu"

%struct.VirtualTransactionId = type { i32, i32 }
%struct.HASHCTL = type { i64, i64, i64, i64, i64, i64, ptr, ptr, ptr, ptr, ptr, ptr }
%struct.PGPROC = type { %struct.dlist_node, ptr, ptr, i32, %struct.Latch, i32, i32, i32, i32, %struct.anon, i32, i32, i32, i8, i8, i8, i8, %struct.proclist_node, %struct.proclist_node, ptr, ptr, i32, i32, %struct.pg_atomic_uint64, i32, i8, i64, i32, %struct.dlist_node, [16 x %struct.dlist_head], %struct.XidCacheStatus, %struct.XidCache, i8, %struct.pg_atomic_uint32, i32, i32, i8, %struct.pg_atomic_uint32, i32, i32, i64, i64, %struct.LWLock, ptr, ptr, i8, i32, ptr, %struct.dlist_head, %struct.dlist_node }
%struct.Latch = type { i32, i32, i8, i32 }
%struct.anon = type { i32, i32 }
%struct.proclist_node = type { i32, i32 }
%struct.pg_atomic_uint64 = type { i64 }
%struct.XidCacheStatus = type { i8, i8 }
%struct.XidCache = type { [64 x i32] }
%struct.pg_atomic_uint32 = type { i32 }
%struct.LWLock = type { i16, %struct.pg_atomic_uint32, %struct.proclist_head }
%struct.proclist_head = type { i32, i32 }
%struct.dlist_head = type { %struct.dlist_node }
%struct.dlist_node = type { ptr, ptr }

@.str = private unnamed_addr constant [17 x i8] c"RecoveryLockHash\00", align 1
@RecoveryLockHash = internal global ptr null, align 8
@.str.1 = private unnamed_addr constant [20 x i8] c"RecoveryLockXidHash\00", align 1
@RecoveryLockXidHash = internal global ptr null, align 8
@MyProcNumber = external global i32, align 4
@MyProc = external global ptr, align 8
@standbyState = external global i32, align 4

; Function Attrs: nounwind uwtable
define dso_local void @InitRecoveryTransactionEnvironment() #0 {
  %1 = alloca %struct.VirtualTransactionId, align 4
  %2 = alloca %struct.HASHCTL, align 8
  call void @llvm.lifetime.start.p0(i64 8, ptr %1) #8
  call void @llvm.lifetime.start.p0(i64 96, ptr %2) #8
  %3 = getelementptr inbounds nuw %struct.HASHCTL, ptr %2, i32 0, i32 4
  store i64 12, ptr %3, align 8
  %4 = getelementptr inbounds nuw %struct.HASHCTL, ptr %2, i32 0, i32 5
  store i64 24, ptr %4, align 8
  %5 = call ptr @hash_create(ptr noundef @.str, i64 noundef 64, ptr noundef %2, i32 noundef 40)
  store ptr %5, ptr @RecoveryLockHash, align 8
  %6 = getelementptr inbounds nuw %struct.HASHCTL, ptr %2, i32 0, i32 4
  store i64 4, ptr %6, align 8
  %7 = getelementptr inbounds nuw %struct.HASHCTL, ptr %2, i32 0, i32 5
  store i64 16, ptr %7, align 8
  %8 = call ptr @hash_create(ptr noundef @.str.1, i64 noundef 64, ptr noundef %2, i32 noundef 40)
  store ptr %8, ptr @RecoveryLockXidHash, align 8
  call void @SharedInvalBackendInit(i1 noundef zeroext true)
  %9 = load i32, ptr @MyProcNumber, align 4
  %10 = load ptr, ptr @MyProc, align 8
  %11 = getelementptr inbounds nuw %struct.PGPROC, ptr %10, i32 0, i32 9
  %12 = getelementptr inbounds nuw %struct.anon, ptr %11, i32 0, i32 0
  store i32 %9, ptr %12, align 4
  %13 = load i32, ptr @MyProcNumber, align 4
  %14 = getelementptr inbounds nuw %struct.VirtualTransactionId, ptr %1, i32 0, i32 0
  store i32 %13, ptr %14, align 4
  %15 = call i32 @GetNextLocalTransactionId()
  %16 = getelementptr inbounds nuw %struct.VirtualTransactionId, ptr %1, i32 0, i32 1
  store i32 %15, ptr %16, align 4
  %17 = load i64, ptr %1, align 4
  call void @VirtualXactLockTableInsert(i64 %17)
  store i32 1, ptr @standbyState, align 4
  call void @llvm.lifetime.end.p0(i64 96, ptr %2) #8
  call void @llvm.lifetime.end.p0(i64 8, ptr %1) #8
  ret void
}