; Function Attrs: nounwind uwtable
define dso_local void @InitRecoveryTransactionEnvironment() local_unnamed_addr #0 {
  %1 = alloca %struct.HASHCTL, align 8
  call void @llvm.lifetime.start.p0(i64 96, ptr nonnull %1) #7
  %2 = getelementptr inbounds nuw i8, ptr %1, i64 32
  store i64 12, ptr %2, align 8
  %3 = getelementptr inbounds nuw i8, ptr %1, i64 40
  store i64 24, ptr %3, align 8
  %4 = call ptr @hash_create(ptr noundef nonnull @.str, i64 noundef 64, ptr noundef nonnull %1, i32 noundef 40) #7
  store ptr %4, ptr @RecoveryLockHash, align 8
  store i64 4, ptr %2, align 8
  store i64 16, ptr %3, align 8
  %5 = call ptr @hash_create(ptr noundef nonnull @.str.1, i64 noundef 64, ptr noundef nonnull %1, i32 noundef 40) #7
  store ptr %5, ptr @RecoveryLockXidHash, align 8
  call void @SharedInvalBackendInit(i1 noundef zeroext true) #7
  %6 = load i32, ptr @MyProcNumber, align 4
  %7 = load ptr, ptr @MyProc, align 8
  %8 = getelementptr inbounds nuw i8, ptr %7, i64 68
  store i32 %6, ptr %8, align 4
  %9 = call i32 @GetNextLocalTransactionId() #7
  %.sroa.4.0.insert.ext = zext i32 %9 to i64
  %.sroa.4.0.insert.shift = shl nuw i64 %.sroa.4.0.insert.ext, 32
  %.sroa.0.0.insert.ext = zext i32 %6 to i64
  %.sroa.0.0.insert.insert = or disjoint i64 %.sroa.4.0.insert.shift, %.sroa.0.0.insert.ext
  call void @VirtualXactLockTableInsert(i64 %.sroa.0.0.insert.insert) #7
  store i32 1, ptr @standbyState, align 4
  call void @llvm.lifetime.end.p0(i64 96, ptr nonnull %1) #7
  ret void
}